; Function Attrs: null_pointer_is_valid sspstrong uwtable
define internal i32 @dissect_camel_InitialDPArgExtension(i1 noundef zeroext %0, ptr noundef %1, i32 noundef %2, ptr noundef %3, ptr noundef %4, i32 noundef %5) #0 {
  %7 = load i32, ptr @camel_ver, align 4
  %8 = add i32 %7, -1
  %or.cond = icmp ult i32 %8, 2
  %InitialDPArgExtensionV2_sequence.InitialDPArgExtension_sequence = select i1 %or.cond, ptr @InitialDPArgExtensionV2_sequence, ptr @InitialDPArgExtension_sequence
  %ett_camel_InitialDPArgExtensionV2.val = load i32, ptr @ett_camel_InitialDPArgExtensionV2, align 4
  %ett_camel_InitialDPArgExtension.val = load i32, ptr @ett_camel_InitialDPArgExtension, align 4
  %9 = select i1 %or.cond, i32 %ett_camel_InitialDPArgExtensionV2.val, i32 %ett_camel_InitialDPArgExtension.val
  %10 = tail call i32 @dissect_ber_sequence(i1 noundef zeroext %0, ptr noundef %3, ptr noundef %4, ptr noundef %1, i32 noundef %2, ptr noundef nonnull %InitialDPArgExtensionV2_sequence.InitialDPArgExtension_sequence, i32 noundef %5, i32 noundef %9)
  ret i32 %10
}